target datalayout = "e-m:e-p270:32:32-p271:32:32-p272:64:64-i64:64-i128:128-f80:128-n8:16:32:64-S128"
target triple = "x86_64-pc-linux-gnu"

%struct._cms_io_handler = type { ptr, ptr, i32, i32, [256 x i8], ptr, ptr, ptr, ptr, ptr }

; Function Attrs: nounwind uwtable
define hidden zeroext i16 @_cmsAdjustEndianess16(i16 noundef zeroext %0) #0 {
  %2 = alloca i16, align 2
  %3 = alloca ptr, align 8
  %4 = alloca i8, align 1
  store i16 %0, ptr %2, align 2
  store ptr %2, ptr %3, align 8
  %5 = load ptr, ptr %3, align 8
  %6 = getelementptr inbounds i8, ptr %5, i64 0
  %7 = load i8, ptr %6, align 1
  store i8 %7, ptr %4, align 1
  %8 = load ptr, ptr %3, align 8
  %9 = getelementptr inbounds i8, ptr %8, i64 1
  %10 = load i8, ptr %9, align 1
  %11 = load ptr, ptr %3, align 8
  %12 = getelementptr inbounds i8, ptr %11, i64 0
  store i8 %10, ptr %12, align 1
  %13 = load i8, ptr %4, align 1
  %14 = load ptr, ptr %3, align 8
  %15 = getelementptr inbounds i8, ptr %14, i64 1
  store i8 %13, ptr %15, align 1
  %16 = load i16, ptr %2, align 2
  ret i16 %16
}

; Function Attrs: nounwind uwtable
define hidden i32 @_cmsReadUInt16Number(ptr noundef %0, ptr noundef %1) #0 {
  %3 = alloca i32, align 4
  %4 = alloca ptr, align 8
  %5 = alloca ptr, align 8
  %6 = alloca i16, align 2
  store ptr %0, ptr %4, align 8
  store ptr %1, ptr %5, align 8
  %7 = load ptr, ptr %4, align 8
  %8 = getelementptr inbounds %struct._cms_io_handler, ptr %7, i32 0, i32 5
  %9 = load ptr, ptr %8, align 8
  %10 = load ptr, ptr %4, align 8
  %11 = call i32 %9(ptr noundef %10, ptr noundef %6, i32 noundef 2, i32 noundef 1)
  %12 = icmp ne i32 %11, 1
  br i1 %12, label %13, label %14

13:                                               ; preds = %2
  store i32 0, ptr %3, align 4
  br label %22

14:                                               ; preds = %2
  %15 = load ptr, ptr %5, align 8
  %16 = icmp ne ptr %15, null
  br i1 %16, label %17, label %21

17:                                               ; preds = %14
  %18 = load i16, ptr %6, align 2
  %19 = call zeroext i16 @_cmsAdjustEndianess16(i16 noundef zeroext %18)
  %20 = load ptr, ptr %5, align 8
  store i16 %19, ptr %20, align 2
  br label %21

21:                                               ; preds = %17, %14
  store i32 1, ptr %3, align 4
  br label %22

22:                                               ; preds = %21, %13
  %23 = load i32, ptr %3, align 4
  ret i32 %23
}

; Function Attrs: nounwind uwtable
define hidden i32 @_cmsReadUInt16Array(ptr noundef %0, i32 noundef %1, ptr noundef %2) #0 {
  %4 = alloca i32, align 4
  %5 = alloca ptr, align 8
  %6 = alloca i32, align 4
  %7 = alloca ptr, align 8
  %8 = alloca i32, align 4
  store ptr %0, ptr %5, align 8
  store i32 %1, ptr %6, align 4
  store ptr %2, ptr %7, align 8
  store i32 0, ptr %8, align 4
  br label %9

9:                                                ; preds = %33, %3
  %10 = load i32, ptr %8, align 4
  %11 = load i32, ptr %6, align 4
  %12 = icmp ult i32 %10, %11
  br i1 %12, label %13, label %36

13:                                               ; preds = %9
  %14 = load ptr, ptr %7, align 8
  %15 = icmp ne ptr %14, null
  br i1 %15, label %16, label %26

16:                                               ; preds = %13
  %17 = load ptr, ptr %5, align 8
  %18 = load ptr, ptr %7, align 8
  %19 = load i32, ptr %8, align 4
  %20 = zext i32 %19 to i64
  %21 = getelementptr inbounds i16, ptr %18, i64 %20
  %22 = call i32 @_cmsReadUInt16Number(ptr noundef %17, ptr noundef %21)
  %23 = icmp ne i32 %22, 0
  br i1 %23, label %25, label %24

24:                                               ; preds = %16
  store i32 0, ptr %4, align 4
  br label %37

25:                                               ; preds = %16
  br label %32

26:                                               ; preds = %13
  %27 = load ptr, ptr %5, align 8
  %28 = call i32 @_cmsReadUInt16Number(ptr noundef %27, ptr noundef null)
  %29 = icmp ne i32 %28, 0
  br i1 %29, label %31, label %30

30:                                               ; preds = %26
  store i32 0, ptr %4, align 4
  br label %37

31:                                               ; preds = %26
  br label %32

32:                                               ; preds = %31, %25
  br label %33

33:                                               ; preds = %32
  %34 = load i32, ptr %8, align 4
  %35 = add i32 %34, 1
  store i32 %35, ptr %8, align 4
  br label %9, !llvm.loop !6

36:                                               ; preds = %9
  store i32 1, ptr %4, align 4
  br label %37

37:                                               ; preds = %36, %30, %24
  %38 = load i32, ptr %4, align 4
  ret i32 %38
}