; Function Attrs: nounwind uwtable
define hidden range(i32 0, 2) i32 @_cmsReadUInt16Array(ptr noundef %0, i32 noundef %1, ptr noundef writeonly %2) local_unnamed_addr #2 {
  %4 = alloca i16, align 2
  %5 = alloca i16, align 2
  %.not20 = icmp eq i32 %1, 0
  br i1 %.not20, label %.loopexit, label %.lr.ph

.lr.ph:                                           ; preds = %3
  %.not = icmp eq ptr %2, null
  %6 = getelementptr inbounds i8, ptr %0, i64 280
  br i1 %.not, label %.lr.ph.split.us, label %.lr.ph.split.preheader

.lr.ph.split.preheader:                           ; preds = %.lr.ph
  %wide.trip.count = zext i32 %1 to i64
  br label %.lr.ph.split

.lr.ph.split.us:                                  ; preds = %.lr.ph, %_cmsReadUInt16Number.exit14.us
  %.019.us = phi i32 [ %9, %_cmsReadUInt16Number.exit14.us ], [ 0, %.lr.ph ]
  call void @llvm.lifetime.start.p0(i64 2, ptr nonnull %4)
  %7 = load ptr, ptr %6, align 8
  %8 = call i32 %7(ptr noundef %0, ptr noundef nonnull %4, i32 noundef 2, i32 noundef 1) #12
  %.not.i12.us = icmp eq i32 %8, 1
  call void @llvm.lifetime.end.p0(i64 2, ptr nonnull %4)
  br i1 %.not.i12.us, label %_cmsReadUInt16Number.exit14.us, label %.loopexit

_cmsReadUInt16Number.exit14.us:                   ; preds = %.lr.ph.split.us
  %9 = add nuw i32 %.019.us, 1
  %exitcond23.not = icmp eq i32 %9, %1
  br i1 %exitcond23.not, label %.loopexit, label %.lr.ph.split.us, !llvm.loop !6

.lr.ph.split:                                     ; preds = %.lr.ph.split.preheader, %_cmsReadUInt16Number.exit
  %indvars.iv = phi i64 [ 0, %.lr.ph.split.preheader ], [ %indvars.iv.next, %_cmsReadUInt16Number.exit ]
  call void @llvm.lifetime.start.p0(i64 2, ptr nonnull %5)
  %10 = load ptr, ptr %6, align 8
  %11 = call i32 %10(ptr noundef %0, ptr noundef nonnull %5, i32 noundef 2, i32 noundef 1) #12
  %.not.i = icmp eq i32 %11, 1
  br i1 %.not.i, label %_cmsReadUInt16Number.exit, label %_cmsReadUInt16Number.exit.thread

_cmsReadUInt16Number.exit.thread:                 ; preds = %.lr.ph.split
  call void @llvm.lifetime.end.p0(i64 2, ptr nonnull %5)
  br label %.loopexit

_cmsReadUInt16Number.exit:                        ; preds = %.lr.ph.split
  %12 = getelementptr inbounds i16, ptr %2, i64 %indvars.iv
  %13 = load i16, ptr %5, align 2
  %.sroa.0.0.insert.insert.i.i = call noundef i16 @llvm.bswap.i16(i16 %13)
  store i16 %.sroa.0.0.insert.insert.i.i, ptr %12, align 2
  call void @llvm.lifetime.end.p0(i64 2, ptr nonnull %5)
  %indvars.iv.next = add nuw nsw i64 %indvars.iv, 1
  %exitcond.not = icmp eq i64 %indvars.iv.next, %wide.trip.count
  br i1 %exitcond.not, label %.loopexit, label %.lr.ph.split, !llvm.loop !6

.loopexit:                                        ; preds = %_cmsReadUInt16Number.exit, %_cmsReadUInt16Number.exit14.us, %.lr.ph.split.us, %3, %_cmsReadUInt16Number.exit.thread
  %.08 = phi i32 [ 0, %_cmsReadUInt16Number.exit.thread ], [ 1, %3 ], [ 0, %.lr.ph.split.us ], [ 1, %_cmsReadUInt16Number.exit14.us ], [ 1, %_cmsReadUInt16Number.exit ]
  ret i32 %.08
}